


ARM Macro Assembler    Page 1 Bitoperators


    1 00000000                 TTL              Bitoperators
    2 00000000                 AREA             program, CODE, READONLY
    3 00000000                 ENTRY
    4 00000000         ;    ;DIZIDEKI EN BUYUK ELEMAN
    5 00000000         ; ;DIZININ BALANGIC ADRESI R6
    6 00000000         ; ;DIZININ BOYUTU R7
    7 00000000         ; ;BNE ESIT DEGIL , BLE KUCUK ISE 
    8 00000000         ; ;BHI BUYUK ISE , BILE KUCUK ESIT 
    9 00000000         ; LDR R6,=CDIZI 
   10 00000000         ; MOV R7,#3
   11 00000000         ; MOV R1,#0
   12 00000000         ; LDR R3,[R6]
   13 00000000         ; 
   14 00000000         ;ILK ADD R1,R1,#4
   15 00000000         ; LDR R5,[R6,R1]
   16 00000000         ; CMP R3,R5
   17 00000000         ;    BHI sonra
   18 00000000         ; MOV R3,R5
   19 00000000         ;sonra subs R7,R7,#1
   20 00000000         ;      CMP R7,#0
   21 00000000         ;   BNE ILK
   22 00000000         ;CDIZI DCD 2,4,6,1
   23 00000000         ; LDR R7,=Cdizi
   24 00000000         ; MOV R0,#0 ; Dizi döngü sayaci
   25 00000000         ; MOV R1,#0 ;1 lerin sayisi
   26 00000000         ; MOV R3,#0 ;Dizi offset
   27 00000000         ;ilk CMP R0,#5
   28 00000000         ; BEQ EXIT
   29 00000000         ; ADD R0,R0,#1
   30 00000000         ; LDR R2,[R7,R3]
   31 00000000         ; MOV R4,#0 ; binary sayac
   32 00000000         ;islem
   33 00000000         ; CMP R4,#32
   34 00000000         ; BEQ son
   35 00000000         ; ADD R4,R4,#1
   36 00000000         ; AND R5,R2,#1
   37 00000000         ; LSR R2,R2,#1
   38 00000000         ; CMP R5,#1
   39 00000000         ; BNE islem
   40 00000000         ; ADD R1,R1,#1
   41 00000000         ; B islem
   42 00000000         ;son
   43 00000000         ; ADD R3,R3,#4
   44 00000000         ; B ilk
   45 00000000         ;EXIT B EXIT
   46 00000000         ;Bdizi dcd 1,2,3,4,5,5,6,6,7,7
   47 00000000         ;Adizi dcd 2,4,6,8,10,12,14,16
   48 00000000         
   49 00000000         ;DIZIDEKI EN BUYUK ELEMAN
   50 00000000         ;DIZININ BALANGIC ADRESI R6
   51 00000000         ;DIZININ BOYUTU R7
   52 00000000         ;BNE ESIT DEGIL , BLE KUCUK ISE 
   53 00000000         ;BHI BUYUK ISE , BILE KUCUK ESIT 
   54 00000000         ;A)
   55 00000000 E59F1124        LDR              R1,=CDIZI
   56 00000004         ;0X80000000,0X800000FF
   57 00000004         ;    MOV R7,#26
   58 00000004         ; MOV R0,#0
   59 00000004         ;ILK 



ARM Macro Assembler    Page 2 Bitoperators


   60 00000004         ;   LDR R5,[R1],#4
   61 00000004         ;   CMP r0,R5
   62 00000004         ;      blt sonra 
   63 00000004         ;   add r8,r8,#1
   64 00000004         ;sonra  subs R7,R7,#1  
   65 00000004         ;   BNE ILK
   66 00000004         ;   
   67 00000004         
   68 00000004         ;B)
   69 00000004         
   70 00000004 E3A00000        MOV              R0,#0
   71 00000008 E3A02000        MOV              R2,#0
   72 0000000C E3A03000        MOV              R3,#0
   73 00000010 E3A04000        MOV              R4,#0
   74 00000014 E3A05000        MOV              R5,#0
   75 00000018 E3A07005        MOV              R7,#5
   76 0000001C E3A09000        MOV              R9,#0
   77 00000020         ILK
   78 00000020 E4918004        LDR              R8,[R1],#4
   79 00000024 E0800008        ADD              R0,R0,R8
   80 00000028 E2577001        SUBS             R7,R7,#1
   81 0000002C 1AFFFFFB        BNE              ILK
   82 00000030 E3A07005        MOV              R7,#5
   83 00000034         ILK1
   84 00000034 E4918004        LDR              R8,[R1],#4
   85 00000038 E0822008        ADD              R2,R2,R8
   86 0000003C E2577001        SUBS             R7,R7,#1
   87 00000040 1AFFFFFB        BNE              ILK1
   88 00000044 E3A07005        MOV              R7,#5
   89 00000048         ILK2
   90 00000048 E4918004        LDR              R8,[R1],#4
   91 0000004C E0833008        ADD              R3,R3,R8
   92 00000050 E2577001        SUBS             R7,R7,#1
   93 00000054 1AFFFFFB        BNE              ILK2
   94 00000058 E3A07005        MOV              R7,#5
   95 0000005C         ILK3
   96 0000005C E4918004        LDR              R8,[R1],#4
   97 00000060 E0844008        ADD              R4,R4,R8
   98 00000064 E2577001        SUBS             R7,R7,#1
   99 00000068 1AFFFFFB        BNE              ILK3
  100 0000006C E3A07005        MOV              R7,#5
  101 00000070         ILK4
  102 00000070 E4918004        LDR              R8,[R1],#4
  103 00000074 E0855008        ADD              R5,R5,R8
  104 00000078 E2577001        SUBS             R7,R7,#1
  105 0000007C 1AFFFFFB        BNE              ILK4
  106 00000080         
  107 00000080 E3A07102        LDR              R7,=0X80000000 ;0X80000000,0X80
                                                            0000FF  o aders ara
                                                            ligi tuttum  ondan 
                                                             en buyuk  sayi ala
                                                            yim 
  108 00000084 E4870004        STR              R0,[R7],#4
  109 00000088 E4872004        STR              R2,[R7],#4
  110 0000008C E4873004        STR              R3,[R7],#4
  111 00000090 E4874004        STR              R4,[R7],#4
  112 00000094 E4875004        STR              R5,[R7],#4
  113 00000098         
  114 00000098 E3A06102        LDR              R6,=0X80000000



ARM Macro Assembler    Page 3 Bitoperators


  115 0000009C E3A07005        MOV              R7,#5
  116 000000A0 E3A01000        MOV              R1,#0
  117 000000A4 E5963000        LDR              R3,[R6]
  118 000000A8         
  119 000000A8 E2811004 
                       loop    ADD              R1,R1,#4
  120 000000AC E7965001        LDR              R5,[R6,R1]
  121 000000B0 E1530005        CMP              R3,R5
  122 000000B4 8A000000        BHI              sonra
  123 000000B8 E1A0B005        MOV              R11,R5
  124 000000BC E2577001 
                       sonra   subs             R7,R7,#1
  125 000000C0 E3570000        CMP              R7,#0
  126 000000C4 1AFFFFF7        BNE              loop
  127 000000C8         
  128 000000C8         ;c)
  129 000000C8         ;  MOV R0,#40
  130 000000C8         ;  MOV R7,#26
  131 000000C8         ;  MOV R3,#0
  132 000000C8         ;  BL  inputfonuction
  133 000000C8         ;exit b exit
  134 000000C8         
  135 000000C8         ;inputfonuction 
  136 000000C8         ;loop 
  137 000000C8         ;    LDR R5,[R1,R3]
  138 000000C8         ;    CMP R0,R5
  139 000000C8         ;       BNE sonra 
  140 000000C8         ;    MOV r12, r3, ASR #2 ; r12 = r3/4 her dafe 4 artirdi
                       gimiz icin bunu kullandim  4 bolum ki indexini bulayim 
  141 000000C8         ;sonra  subs R7,R7,#1  
  142 000000C8         ;       ADD R3,R3,#4
  143 000000C8         ;    BNE loop
  144 000000C8         ;       BX LR
  145 000000C8         
  146 000000C8 0000000A 
              00000001 
              00000001 
              00000011 
              00000001 CDIZI   DCD              10 , 1, 1, 17, 1
  147 000000DC 00000002 
              FFFFFFFE 
              00000002 
              00000002 
              00000002         DCD              2 , -2, 2, 2, 2
  148 000000F0 00000003 
              0000001E 
              FFFFFFF3 
              00000003 
              00000003         DCD              3 , 30, -13, 3, 3
  149 00000104 00000004 
              FFFFFFFC 
              00000004 
              00000028 
              00000004         DCD              4 , -4, 4, 40, 4
  150 00000118 00000005 
              FFFFFFCE 
              00000005 
              00000005 
              00000005         DCD              5 , -50, 5, 5, 5



ARM Macro Assembler    Page 4 Bitoperators


  151 0000012C                 END
              00000000 
Command Line: --debug --xref --diag_suppress=9931 --apcs=interwork --depend=.\o
bjects\anadosya.d -o.\objects\anadosya.o -IC:\Keil_v5\ARM\RV31\INC -IC:\Keil_v5
\ARM\CMSIS\Include --predefine="__EVAL SETA 1" --predefine="__UVISION_VERSION S
ETA 526" --list=.\listings\anadosya.lst anadosya.s



ARM Macro Assembler    Page 1 Alphabetic symbol ordering
Relocatable symbols

CDIZI 000000C8

Symbol: CDIZI
   Definitions
      At line 146 in file anadosya.s
   Uses
      At line 55 in file anadosya.s
Comment: CDIZI used once
ILK 00000020

Symbol: ILK
   Definitions
      At line 77 in file anadosya.s
   Uses
      At line 81 in file anadosya.s
Comment: ILK used once
ILK1 00000034

Symbol: ILK1
   Definitions
      At line 83 in file anadosya.s
   Uses
      At line 87 in file anadosya.s
Comment: ILK1 used once
ILK2 00000048

Symbol: ILK2
   Definitions
      At line 89 in file anadosya.s
   Uses
      At line 93 in file anadosya.s
Comment: ILK2 used once
ILK3 0000005C

Symbol: ILK3
   Definitions
      At line 95 in file anadosya.s
   Uses
      At line 99 in file anadosya.s
Comment: ILK3 used once
ILK4 00000070

Symbol: ILK4
   Definitions
      At line 101 in file anadosya.s
   Uses
      At line 105 in file anadosya.s
Comment: ILK4 used once
loop 000000A8

Symbol: loop
   Definitions
      At line 119 in file anadosya.s
   Uses
      At line 126 in file anadosya.s
Comment: loop used once
program 00000000

Symbol: program



ARM Macro Assembler    Page 2 Alphabetic symbol ordering
Relocatable symbols

   Definitions
      At line 2 in file anadosya.s
   Uses
      None
Comment: program unused
sonra 000000BC

Symbol: sonra
   Definitions
      At line 124 in file anadosya.s
   Uses
      At line 122 in file anadosya.s
Comment: sonra used once
9 symbols
343 symbols in table
